target datalayout = "e-m:e-p270:32:32-p271:32:32-p272:64:64-i64:64-i128:128-f80:128-n8:16:32:64-S128"
target triple = "x86_64-unknown-linux-gnu"

%"class.smt::eq_justification" = type { ptr }
%"class.smt::enode" = type { ptr, ptr, ptr, ptr, i32, i32, i32, i16, i32, i8, i8, %class.ptr_vector, %class.id_var_list, %"struct.smt::trans_justification", %class.approx_set, %class.approx_set, [0 x ptr] }
%class.ptr_vector = type { %class.vector }
%class.vector = type { ptr }
%class.id_var_list = type { i32, ptr }
%"struct.smt::trans_justification" = type { ptr, %"class.smt::eq_justification" }
%class.approx_set = type { %class.approx_set_tpl }
%class.approx_set_tpl = type { i64 }

@.str.16 = private unnamed_addr constant [106 x i8] c"generated/home/dtcxzyw/WorkSpace/Projects/compilers/llvm-opt-benchmark/bench/z3/z3/src/util/id_var_list.h\00", align 1
@.str.17 = private unnamed_addr constant [29 x i8] c"UNEXPECTED CODE WAS REACHED.\00", align 1

; Function Attrs: mustprogress nounwind uwtable
define linkonce_odr hidden void @_ZN11id_var_listILin1ELin1EE8set_nextEPS0_(ptr noundef nonnull align 8 dereferenceable(16) %this, ptr noundef %next) #4 comdat align 2 {
entry:
  %this.addr = alloca ptr, align 8
  %next.addr = alloca ptr, align 8
  store ptr %this, ptr %this.addr, align 8
  store ptr %next, ptr %next.addr, align 8
  %this1 = load ptr, ptr %this.addr, align 8
  %0 = load ptr, ptr %next.addr, align 8
  %m_next = getelementptr inbounds %class.id_var_list, ptr %this1, i32 0, i32 1
  store ptr %0, ptr %m_next, align 8
  ret void
}

; Function Attrs: mustprogress nounwind uwtable
define linkonce_odr hidden noundef ptr @_ZNK11id_var_listILin1ELin1EE8get_nextEv(ptr noundef nonnull align 8 dereferenceable(16) %this) #4 comdat align 2 {
entry:
  %this.addr = alloca ptr, align 8
  store ptr %this, ptr %this.addr, align 8
  %this1 = load ptr, ptr %this.addr, align 8
  %m_next = getelementptr inbounds %class.id_var_list, ptr %this1, i32 0, i32 1
  %0 = load ptr, ptr %m_next, align 8
  ret ptr %0
}

; Function Attrs: mustprogress nounwind uwtable
define linkonce_odr hidden noundef i32 @_ZNK11id_var_listILin1ELin1EE7get_varEv(ptr noundef nonnull align 8 dereferenceable(16) %this) #4 comdat align 2 {
entry:
  %this.addr = alloca ptr, align 8
  store ptr %this, ptr %this.addr, align 8
  %this1 = load ptr, ptr %this.addr, align 8
  %bf.load = load i32, ptr %this1, align 8
  %bf.ashr = ashr i32 %bf.load, 8
  ret i32 %bf.ashr
}

; Function Attrs: mustprogress nounwind uwtable
define linkonce_odr hidden noundef i32 @_ZNK11id_var_listILin1ELin1EE6get_idEv(ptr noundef nonnull align 8 dereferenceable(16) %this) #4 comdat align 2 {
entry:
  %this.addr = alloca ptr, align 8
  store ptr %this, ptr %this.addr, align 8
  %this1 = load ptr, ptr %this.addr, align 8
  %bf.load = load i32, ptr %this1, align 8
  %bf.shl = shl i32 %bf.load, 24
  %bf.ashr = ashr i32 %bf.shl, 24
  ret i32 %bf.ashr
}

; Function Attrs: mustprogress uwtable
define linkonce_odr hidden void @_ZN11id_var_listILin1ELin1EE7del_varEi(ptr noundef nonnull align 8 dereferenceable(16) %this, i32 noundef %id) #5 comdat align 2 {
entry:
  %this.addr = alloca ptr, align 8
  %id.addr = alloca i32, align 4
  %prev = alloca ptr, align 8
  %l = alloca ptr, align 8
  store ptr %this, ptr %this.addr, align 8
  store i32 %id, ptr %id.addr, align 4
  %this1 = load ptr, ptr %this.addr, align 8
  %call = call noundef i32 @_ZNK11id_var_listILin1ELin1EE6get_idEv(ptr noundef nonnull align 8 dereferenceable(16) %this1)
  %0 = load i32, ptr %id.addr, align 4
  %cmp = icmp eq i32 %call, %0
  br i1 %cmp, label %if.then, label %if.else20

if.then:                                          ; preds = %entry
  %m_next = getelementptr inbounds %class.id_var_list, ptr %this1, i32 0, i32 1
  %1 = load ptr, ptr %m_next, align 8
  %tobool = icmp ne ptr %1, null
  br i1 %tobool, label %if.else, label %if.then2

if.then2:                                         ; preds = %if.then
  %bf.load = load i32, ptr %this1, align 8
  %bf.clear = and i32 %bf.load, 255
  %bf.set = or i32 %bf.clear, -256
  store i32 %bf.set, ptr %this1, align 8
  %bf.load3 = load i32, ptr %this1, align 8
  %bf.clear4 = and i32 %bf.load3, -256
  %bf.set5 = or i32 %bf.clear4, 255
  store i32 %bf.set5, ptr %this1, align 8
  br label %if.end

if.else:                                          ; preds = %if.then
  %m_next6 = getelementptr inbounds %class.id_var_list, ptr %this1, i32 0, i32 1
  %2 = load ptr, ptr %m_next6, align 8
  %call7 = call noundef i32 @_ZNK11id_var_listILin1ELin1EE7get_varEv(ptr noundef nonnull align 8 dereferenceable(16) %2)
  %bf.load8 = load i32, ptr %this1, align 8
  %bf.value = and i32 %call7, 16777215
  %bf.shl = shl i32 %bf.value, 8
  %bf.clear9 = and i32 %bf.load8, 255
  %bf.set10 = or i32 %bf.clear9, %bf.shl
  store i32 %bf.set10, ptr %this1, align 8
  %m_next11 = getelementptr inbounds %class.id_var_list, ptr %this1, i32 0, i32 1
  %3 = load ptr, ptr %m_next11, align 8
  %call12 = call noundef i32 @_ZNK11id_var_listILin1ELin1EE6get_idEv(ptr noundef nonnull align 8 dereferenceable(16) %3)
  %bf.load13 = load i32, ptr %this1, align 8
  %bf.value14 = and i32 %call12, 255
  %bf.clear15 = and i32 %bf.load13, -256
  %bf.set16 = or i32 %bf.clear15, %bf.value14
  store i32 %bf.set16, ptr %this1, align 8
  %m_next17 = getelementptr inbounds %class.id_var_list, ptr %this1, i32 0, i32 1
  %4 = load ptr, ptr %m_next17, align 8
  %call18 = call noundef ptr @_ZNK11id_var_listILin1ELin1EE8get_nextEv(ptr noundef nonnull align 8 dereferenceable(16) %4)
  %m_next19 = getelementptr inbounds %class.id_var_list, ptr %this1, i32 0, i32 1
  store ptr %call18, ptr %m_next19, align 8
  br label %if.end

if.end:                                           ; preds = %if.else, %if.then2
  br label %if.end29

if.else20:                                        ; preds = %entry
  store ptr %this1, ptr %prev, align 8
  %5 = load ptr, ptr %prev, align 8
  %call21 = call noundef ptr @_ZNK11id_var_listILin1ELin1EE8get_nextEv(ptr noundef nonnull align 8 dereferenceable(16) %5)
  store ptr %call21, ptr %l, align 8
  br label %while.cond

while.cond:                                       ; preds = %if.end27, %if.else20
  %6 = load ptr, ptr %l, align 8
  %tobool22 = icmp ne ptr %6, null
  br i1 %tobool22, label %while.body, label %while.end

while.body:                                       ; preds = %while.cond
  %7 = load ptr, ptr %l, align 8
  %call23 = call noundef i32 @_ZNK11id_var_listILin1ELin1EE6get_idEv(ptr noundef nonnull align 8 dereferenceable(16) %7)
  %8 = load i32, ptr %id.addr, align 4
  %cmp24 = icmp eq i32 %call23, %8
  br i1 %cmp24, label %if.then25, label %if.end27

if.then25:                                        ; preds = %while.body
  %9 = load ptr, ptr %prev, align 8
  %10 = load ptr, ptr %l, align 8
  %call26 = call noundef ptr @_ZNK11id_var_listILin1ELin1EE8get_nextEv(ptr noundef nonnull align 8 dereferenceable(16) %10)
  call void @_ZN11id_var_listILin1ELin1EE8set_nextEPS0_(ptr noundef nonnull align 8 dereferenceable(16) %9, ptr noundef %call26)
  br label %if.end29

if.end27:                                         ; preds = %while.body
  %11 = load ptr, ptr %l, align 8
  store ptr %11, ptr %prev, align 8
  %12 = load ptr, ptr %l, align 8
  %call28 = call noundef ptr @_ZNK11id_var_listILin1ELin1EE8get_nextEv(ptr noundef nonnull align 8 dereferenceable(16) %12)
  store ptr %call28, ptr %l, align 8
  br label %while.cond, !llvm.loop !11

while.end:                                        ; preds = %while.cond
  call void @_Z26notify_assertion_violationPKciS0_(ptr noundef @.str.16, i32 noundef 150, ptr noundef @.str.17)
  call void @exit(i32 noundef 114) #13
  unreachable

if.end29:                                         ; preds = %if.then25, %if.end
  ret void
}

; Function Attrs: mustprogress uwtable
define hidden void @_ZN3smt5enode10del_th_varEi(ptr noundef nonnull align 8 dereferenceable(112) %this, i32 noundef %id) #5 align 2 {
entry:
  %this.addr = alloca ptr, align 8
  %id.addr = alloca i32, align 4
  store ptr %this, ptr %this.addr, align 8
  store i32 %id, ptr %id.addr, align 4
  %this1 = load ptr, ptr %this.addr, align 8
  %m_th_var_list = getelementptr inbounds %"class.smt::enode", ptr %this1, i32 0, i32 12
  %0 = load i32, ptr %id.addr, align 4
  call void @_ZN11id_var_listILin1ELin1EE7del_varEi(ptr noundef nonnull align 8 dereferenceable(16) %m_th_var_list, i32 noundef %0)
  ret void
}