; Function Attrs: mustprogress uwtable
define hidden void @_ZN3smt5enode10del_th_varEi(ptr nocapture noundef nonnull align 8 dereferenceable(112) %this, i32 noundef %id) local_unnamed_addr #3 align 2 {
entry:
  %m_th_var_list = getelementptr inbounds i8, ptr %this, i64 64
  %bf.load.i.i = load i32, ptr %m_th_var_list, align 8
  %bf.shl.i.i = shl i32 %bf.load.i.i, 24
  %bf.ashr.i.i = ashr exact i32 %bf.shl.i.i, 24
  %cmp.i = icmp eq i32 %bf.ashr.i.i, %id
  br i1 %cmp.i, label %if.then.i, label %while.cond.i

if.then.i:                                        ; preds = %entry
  %m_next.i = getelementptr inbounds i8, ptr %this, i64 72
  %0 = load ptr, ptr %m_next.i, align 8
  %tobool.not.i = icmp eq ptr %0, null
  br i1 %tobool.not.i, label %if.then2.i, label %if.else.i

if.then2.i:                                       ; preds = %if.then.i
  store i32 -1, ptr %m_th_var_list, align 8
  br label %_ZN11id_var_listILin1ELin1EE7del_varEi.exit

if.else.i:                                        ; preds = %if.then.i
  %bf.load.i7.i = load i32, ptr %0, align 8
  %bf.value.i = and i32 %bf.load.i7.i, -256
  %bf.clear9.i = and i32 %bf.load.i.i, 255
  %bf.set10.i = or disjoint i32 %bf.value.i, %bf.clear9.i
  store i32 %bf.set10.i, ptr %m_th_var_list, align 8
  %bf.load.i9.i = load i32, ptr %0, align 8
  %bf.shl.i10.i = and i32 %bf.load.i9.i, 255
  %bf.set16.i = or disjoint i32 %bf.shl.i10.i, %bf.value.i
  store i32 %bf.set16.i, ptr %m_th_var_list, align 8
  %m_next.i.i = getelementptr inbounds i8, ptr %0, i64 8
  %1 = load ptr, ptr %m_next.i.i, align 8
  store ptr %1, ptr %m_next.i, align 8
  br label %_ZN11id_var_listILin1ELin1EE7del_varEi.exit

while.cond.i:                                     ; preds = %entry, %while.body.i
  %prev.0.i = phi ptr [ %l.0.i, %while.body.i ], [ %m_th_var_list, %entry ]
  %l.0.in.i = getelementptr inbounds i8, ptr %prev.0.i, i64 8
  %l.0.i = load ptr, ptr %l.0.in.i, align 8
  %tobool22.not.i = icmp eq ptr %l.0.i, null
  br i1 %tobool22.not.i, label %while.end.i, label %while.body.i

while.body.i:                                     ; preds = %while.cond.i
  %bf.load.i13.i = load i32, ptr %l.0.i, align 8
  %bf.shl.i14.i = shl i32 %bf.load.i13.i, 24
  %bf.ashr.i15.i = ashr exact i32 %bf.shl.i14.i, 24
  %cmp24.i = icmp eq i32 %bf.ashr.i15.i, %id
  br i1 %cmp24.i, label %if.then25.i, label %while.cond.i, !llvm.loop !11

if.then25.i:                                      ; preds = %while.body.i
  %l.0.in.i.le = getelementptr inbounds i8, ptr %prev.0.i, i64 8
  %m_next.i16.i = getelementptr inbounds i8, ptr %l.0.i, i64 8
  %2 = load ptr, ptr %m_next.i16.i, align 8
  store ptr %2, ptr %l.0.in.i.le, align 8
  br label %_ZN11id_var_listILin1ELin1EE7del_varEi.exit

while.end.i:                                      ; preds = %while.cond.i
  tail call void @_Z26notify_assertion_violationPKciS0_(ptr noundef nonnull @.str.16, i32 noundef 150, ptr noundef nonnull @.str.17)
  tail call void @exit(i32 noundef 114) #18
  unreachable

_ZN11id_var_listILin1ELin1EE7del_varEi.exit:      ; preds = %if.then2.i, %if.else.i, %if.then25.i
  ret void
}